(lp0
ccopy_reg
_reconstructor
p1
(cneuron
Neuron
p2
c__builtin__
object
p3
Ntp4
Rp5
(dp6
S'err_margin'
p7
F0.1
sS'inputs'
p8
(lp9
I255
aI0
aI0
aI255
aI129
aI73
aI255
aI88
aI255
aI255
aI0
aI255
aI133
aI0
aI105
aI30
aI255
aI0
aI255
aI255
aI106
aI0
aI255
aI255
aI0
aI255
aI0
aI255
aI53
aI0
aI21
aI0
aI0
aI255
aI10
asS'f_stretch'
p10
I1
sS'l_rate'
p11
F0.005
sS'a_func'
p12
S'step'
p13
sS'weights'
p14
(lp15
F4.235000000000001
aF-4.560000000000001
aF-5.005000000000001
aF-7.480000000000001
aF-7.845000000000002
aF-2.7300000000000004
aF-0.95
aF-4.340000000000001
aF1.1599999999999997
aF4.335000000000001
aF2.87
aF-6.950000000000001
aF0.8049999999999999
aF2.4
aF-0.2150000000000002
aF-1.1750000000000005
aF2.97
aF-2.4250000000000003
aF3.3499999999999996
aF-2.17
aF-0.6900000000000001
aF0.5549999999999999
aF1.8599999999999999
aF-4.935000000000001
aF4.135000000000001
aF-1.0799999999999998
aF0.7649999999999999
aF0.9349999999999998
aF0.7650000000000001
aF-4.65
aF-7.330000000000002
aF-4.690000000000001
aF-0.3450000000000002
aF-3.17
aF2.3450000000000006
asS'threshold'
p16
F1.0099999999999998
sS'output'
p17
F0.0
sbag1
(g2
g3
Ntp18
Rp19
(dp20
g7
F0.1
sg8
(lp21
I255
aI0
aI0
aI255
aI129
aI73
aI255
aI88
aI255
aI255
aI0
aI255
aI133
aI0
aI105
aI30
aI255
aI0
aI255
aI255
aI106
aI0
aI255
aI255
aI0
aI255
aI0
aI255
aI53
aI0
aI21
aI0
aI0
aI255
aI10
asg10
I1
sg11
F0.005
sg12
g13
sg14
(lp22
F-2.535
aF3.625000000000001
aF-0.2749999999999999
aF0.07000000000000006
aF-0.4650000000000002
aF0.0950000000000002
aF2.455
aF3.875000000000001
aF-5.545000000000001
aF-1.55
aF-2.5
aF1.0000000000000002
aF0.905
aF-1.2050000000000003
aF-0.27500000000000013
aF-4.73
aF-5.5150000000000015
aF-5.15
aF-2.825
aF-6.120000000000002
aF-1.58
aF3.9400000000000013
aF1.4200000000000004
aF-1.1400000000000001
aF2.5100000000000002
aF-1.59
aF-1.55
aF-0.07499999999999996
aF0.6150000000000002
aF1.0600000000000005
aF2.145
aF-1.2650000000000001
aF2.2750000000000004
aF1.8900000000000003
aF-0.8300000000000003
asg16
F1.0149999999999997
sg17
F0.0
sbag1
(g2
g3
Ntp23
Rp24
(dp25
g7
F0.1
sg8
(lp26
I255
aI0
aI0
aI255
aI129
aI73
aI255
aI88
aI255
aI255
aI0
aI255
aI133
aI0
aI105
aI30
aI255
aI0
aI255
aI255
aI106
aI0
aI255
aI255
aI0
aI255
aI0
aI255
aI53
aI0
aI21
aI0
aI0
aI255
aI10
asg10
I1
sg11
F0.005
sg12
g13
sg14
(lp27
F3.335
aF-1.5750000000000004
aF4.515000000000001
aF1.9000000000000008
aF-0.12999999999999967
aF0.9300000000000003
aF-8.295000000000002
aF-1.5
aF-2.8899999999999997
aF-1.8400000000000003
aF2.665
aF2.670000000000001
aF-5.910000000000002
aF-2.0100000000000002
aF-3.12
aF-1.9700000000000002
aF0.3899999999999999
aF3.0550000000000006
aF-5.405000000000002
aF-1.8150000000000004
aF-1.04
aF0.41500000000000004
aF2.0949999999999998
aF1.5300000000000005
aF-3.6000000000000005
aF-1.3900000000000001
aF1.4150000000000003
aF-1.605
aF2.1600000000000006
aF-3.335000000000001
aF-6.630000000000001
aF0.04500000000000037
aF3.735
aF-1.27
aF-7.170000000000002
asg16
F1.0149999999999997
sg17
F0.0
sbag1
(g2
g3
Ntp28
Rp29
(dp30
g7
F0.1
sg8
(lp31
I255
aI0
aI0
aI255
aI129
aI73
aI255
aI88
aI255
aI255
aI0
aI255
aI133
aI0
aI105
aI30
aI255
aI0
aI255
aI255
aI106
aI0
aI255
aI255
aI0
aI255
aI0
aI255
aI53
aI0
aI21
aI0
aI0
aI255
aI10
asg10
I1
sg11
F0.005
sg12
g13
sg14
(lp32
F-13.190000000000003
aF1.8550000000000029
aF10.120000000000001
aF-0.6250000000000002
aF1.4
aF-6.905000000000002
aF-4.8400000000000025
aF-1.2599999999999991
aF-1.7400000000000004
aF4.459999999999999
aF0.28000000000000047
aF5.590000000000002
aF-3.7299999999999978
aF-0.7850000000000004
aF-0.40500000000000036
aF2.0949999999999998
aF-12.805000000000003
aF-0.16000000000000003
aF2.0700000000000007
aF-1.7449999999999994
aF-4.329999999999999
aF-2.41
aF-10.310000000000002
aF12.505000000000006
aF-10.920000000000003
aF1.1599999999999997
aF-4.114999999999999
aF-3.0550000000000006
aF-6.235000000000002
aF4.545
aF2.175
aF7.560000000000001
aF-3.7650000000000006
aF-5.190000000000001
aF-3.9099999999999993
asg16
F1.0249999999999995
sg17
F0.0
sbag1
(g2
g3
Ntp33
Rp34
(dp35
g7
F0.1
sg8
(lp36
I255
aI0
aI0
aI255
aI129
aI73
aI255
aI88
aI255
aI255
aI0
aI255
aI133
aI0
aI105
aI30
aI255
aI0
aI255
aI255
aI106
aI0
aI255
aI255
aI0
aI255
aI0
aI255
aI53
aI0
aI21
aI0
aI0
aI255
aI10
asg10
I1
sg11
F0.005
sg12
g13
sg14
(lp37
F0.8800000000000001
aF0.6550000000000002
aF2.7350000000000003
aF-3.1500000000000012
aF-5.650000000000001
aF2.250000000000001
aF1.8150000000000004
aF1.4800000000000002
aF-1.0900000000000005
aF-6.375000000000001
aF0.015000000000000346
aF-1.4800000000000004
aF-0.5899999999999999
aF2.36
aF5.645000000000001
aF-5.6850000000000005
aF1.0250000000000006
aF3.410000000000001
aF-4.035
aF-1.1600000000000001
aF1.6600000000000006
aF-0.24000000000000016
aF-3.6350000000000007
aF-1.075
aF-4.740000000000002
aF-4.430000000000001
aF-5.66
aF0.30999999999999994
aF-0.8099999999999997
aF2.29
aF-0.135
aF1.1450000000000002
aF-1.8599999999999999
aF2.9800000000000004
aF-1.71
asg16
F1.0149999999999997
sg17
F0.0
sbag1
(g2
g3
Ntp38
Rp39
(dp40
g7
F0.1
sg8
(lp41
I255
aI0
aI0
aI255
aI129
aI73
aI255
aI88
aI255
aI255
aI0
aI255
aI133
aI0
aI105
aI30
aI255
aI0
aI255
aI255
aI106
aI0
aI255
aI255
aI0
aI255
aI0
aI255
aI53
aI0
aI21
aI0
aI0
aI255
aI10
asg10
I1
sg11
F0.005
sg12
g13
sg14
(lp42
F-4.49
aF-4.995000000000001
aF-4.3950000000000005
aF2.6400000000000006
aF5.260000000000001
aF-2.21
aF-0.375
aF-3.350000000000001
aF1.1150000000000002
aF-7.375000000000002
aF0.7950000000000004
aF1.6150000000000004
aF-0.30999999999999983
aF-2.0100000000000002
aF-0.515
aF1.36
aF-2.785000000000001
aF5.125000000000001
aF-0.40500000000000025
aF0.6649999999999998
aF-0.56
aF-1.5100000000000002
aF0.4599999999999999
aF-4.9799999999999995
aF3.9100000000000006
aF0.3699999999999999
aF-1.1750000000000003
aF-1.7950000000000002
aF-3.625
aF1.7149999999999999
aF1.2850000000000001
aF-5.685000000000001
aF-0.34500000000000014
aF-1.235
aF-0.9799999999999998
asg16
F1.0099999999999998
sg17
F0.0
sbag1
(g2
g3
Ntp43
Rp44
(dp45
g7
F0.1
sg8
(lp46
I255
aI0
aI0
aI255
aI129
aI73
aI255
aI88
aI255
aI255
aI0
aI255
aI133
aI0
aI105
aI30
aI255
aI0
aI255
aI255
aI106
aI0
aI255
aI255
aI0
aI255
aI0
aI255
aI53
aI0
aI21
aI0
aI0
aI255
aI10
asg10
I1
sg11
F0.005
sg12
g13
sg14
(lp47
F-0.020000000000000018
aF6.325000000000001
aF-6.335000000000002
aF-11.105000000000004
aF-4.6000000000000005
aF-3.9450000000000007
aF-0.20500000000000007
aF6.730000000000001
aF-10.260000000000002
aF-4.620000000000001
aF-7.450000000000002
aF2.5450000000000004
aF0.010000000000000231
aF-0.775
aF-1.205
aF0.5549999999999996
aF2.3800000000000003
aF-1.7000000000000002
aF1.9400000000000004
aF2.4099999999999993
aF3.33
aF-0.8900000000000006
aF-0.8700000000000003
aF3.9400000000000004
aF-5.205000000000001
aF-1.51
aF-1.6400000000000008
aF-1.7300000000000006
aF0.4349999999999997
aF3.8500000000000023
aF3.9000000000000004
aF0.4450000000000005
aF-3.0300000000000007
aF-6.960000000000001
aF-1.1899999999999997
asg16
F1.0149999999999997
sg17
F0.0
sbag1
(g2
g3
Ntp48
Rp49
(dp50
g7
F0.1
sg8
(lp51
I255
aI0
aI0
aI255
aI129
aI73
aI255
aI88
aI255
aI255
aI0
aI255
aI133
aI0
aI105
aI30
aI255
aI0
aI255
aI255
aI106
aI0
aI255
aI255
aI0
aI255
aI0
aI255
aI53
aI0
aI21
aI0
aI0
aI255
aI10
asg10
I1
sg11
F0.005
sg12
g13
sg14
(lp52
F-9.264999999999999
aF3.2650000000000006
aF1.810000000000001
aF0.6600000000000006
aF0.849999999999999
aF2.3350000000000004
aF-0.7649999999999995
aF-5.040000000000001
aF0.5600000000000004
aF-3.5299999999999994
aF1.5299999999999996
aF-6.915000000000002
aF-10.825000000000003
aF0.20499999999999985
aF0.6399999999999998
aF0.26499999999999946
aF-1.034999999999999
aF-2.855
aF1.405
aF-2.26
aF6.765000000000001
aF-2.5399999999999996
aF0.125
aF-7.914999999999998
aF4.909999999999999
aF-5.045
aF-2.964999999999999
aF5.505
aF-4.73
aF-7.125000000000001
aF4.54
aF2.665
aF6.355000000000001
aF1.9100000000000006
aF-0.3249999999999995
asg16
F1.0249999999999995
sg17
F0.0
sbag1
(g2
g3
Ntp53
Rp54
(dp55
g7
F0.1
sg8
(lp56
I255
aI0
aI0
aI255
aI129
aI73
aI255
aI88
aI255
aI255
aI0
aI255
aI133
aI0
aI105
aI30
aI255
aI0
aI255
aI255
aI106
aI0
aI255
aI255
aI0
aI255
aI0
aI255
aI53
aI0
aI21
aI0
aI0
aI255
aI10
asg10
I1
sg11
F0.005
sg12
g13
sg14
(lp57
F-2.214999999999999
aF-5.470000000000001
aF-1.7550000000000003
aF5.74
aF-8.06
aF-8.180000000000001
aF2.670000000000001
aF-3.540000000000001
aF5.815000000000001
aF0.3899999999999998
aF-8.210000000000003
aF2.16
aF1.4800000000000004
aF-1.7750000000000004
aF-0.89
aF-1.2000000000000004
aF-1.4799999999999998
aF-5.43
aF-0.3050000000000006
aF0.53
aF1.045
aF1.4849999999999999
aF0.8200000000000001
aF1.355000000000001
aF-5.3100000000000005
aF-1.92
aF8.355
aF-8.480000000000002
aF1.2650000000000003
aF-4.830000000000001
aF-5.045000000000001
aF6.965000000000003
aF-0.30500000000000016
aF-6.370000000000001
aF-4.4700000000000015
asg16
F1.0149999999999997
sg17
F0.0
sbag1
(g2
g3
Ntp58
Rp59
(dp60
g7
F0.1
sg8
(lp61
I255
aI0
aI0
aI255
aI129
aI73
aI255
aI88
aI255
aI255
aI0
aI255
aI133
aI0
aI105
aI30
aI255
aI0
aI255
aI255
aI106
aI0
aI255
aI255
aI0
aI255
aI0
aI255
aI53
aI0
aI21
aI0
aI0
aI255
aI10
asg10
I1
sg11
F0.005
sg12
g13
sg14
(lp62
F0.3300000000000003
aF-3.3700000000000006
aF-3.0399999999999996
aF1.5300000000000002
aF3.0350000000000006
aF5.324999999999999
aF2.3450000000000006
aF-2.8850000000000007
aF0.6699999999999998
aF0.4800000000000001
aF-5.630000000000001
aF1.8650000000000002
aF0.5700000000000003
aF-1.4000000000000001
aF-1.495
aF0.855
aF-1.6249999999999998
aF-4.3500000000000005
aF1.77
aF-2.665
aF0.4099999999999999
aF-1.0450000000000004
aF0.5449999999999998
aF3.2150000000000016
aF-5.115000000000002
aF-2.995
aF-9.475000000000001
aF9.060000000000002
aF-1.4100000000000004
aF-2.35
aF-5.11
aF-7.115000000000001
aF-3.765
aF6.300000000000001
aF0.5450000000000004
asg16
F1.0149999999999997
sg17
F1.0
sba.